target datalayout = "e-m:e-p270:32:32-p271:32:32-p272:64:64-i64:64-i128:128-f80:128-n8:16:32:64-S128"
target triple = "x86_64-pc-linux-gnu"

%"class.cv::utils::trace::details::Region" = type <{ ptr, i32, [4 x i8] }>
%"class.cv::Range" = type { i32, i32 }
%"class.cv::ParallelLoopBody" = type { ptr }
%"struct.cv::hal::cpu_baseline::(anonymous namespace)::RGB8toYUV420pInvoker" = type <{ %"class.cv::ParallelLoopBody", ptr, i64, ptr, ptr, i64, i32, i32, i32, i8, i8, i8, i8 }>

@_ZTVN2cv16ParallelLoopBodyE = external unnamed_addr constant { [5 x ptr] }, align 8

; Function Attrs: mustprogress nounwind uwtable
define linkonce_odr hidden void @_ZN2cv16ParallelLoopBodyC2Ev(ptr noundef nonnull align 8 dereferenceable(8) %0) unnamed_addr #2 comdat align 2 {
  %2 = alloca ptr, align 8
  store ptr %0, ptr %2, align 8
  %3 = load ptr, ptr %2, align 8
  store ptr getelementptr inbounds inrange(-16, 24) ({ [5 x ptr] }, ptr @_ZTVN2cv16ParallelLoopBodyE, i32 0, i32 0, i32 2), ptr %3, align 8
  ret void
}

; Function Attrs: mustprogress nounwind uwtable
define internal void @_ZN2cv3hal12cpu_baseline12_GLOBAL__N_120RGB8toYUV420pInvokerD2Ev(ptr noundef nonnull align 8 dereferenceable(63) %0) unnamed_addr #2 align 2 {
  %2 = alloca ptr, align 8
  store ptr %0, ptr %2, align 8
  %3 = load ptr, ptr %2, align 8
  call void @_ZN2cv16ParallelLoopBodyD2Ev(ptr noundef nonnull align 8 dereferenceable(8) %3) #10
  ret void
}

; Function Attrs: mustprogress nounwind uwtable
define linkonce_odr hidden void @_ZN2cv5RangeC2Eii(ptr noundef nonnull align 4 dereferenceable(8) %0, i32 noundef %1, i32 noundef %2) unnamed_addr #2 comdat align 2 {
  %4 = alloca ptr, align 8
  %5 = alloca i32, align 4
  %6 = alloca i32, align 4
  store ptr %0, ptr %4, align 8
  store i32 %1, ptr %5, align 4
  store i32 %2, ptr %6, align 4
  %7 = load ptr, ptr %4, align 8
  %8 = getelementptr inbounds %"class.cv::Range", ptr %7, i32 0, i32 0
  %9 = load i32, ptr %5, align 4
  store i32 %9, ptr %8, align 4
  %10 = getelementptr inbounds %"class.cv::Range", ptr %7, i32 0, i32 1
  %11 = load i32, ptr %6, align 4
  store i32 %11, ptr %10, align 4
  ret void
}

; Function Attrs: mustprogress nounwind uwtable
define internal void @_ZN2cv3hal12cpu_baseline12_GLOBAL__N_120RGB8toYUV420pInvokerC2EPKhmPhS6_miiibbb(ptr noundef nonnull align 8 dereferenceable(63) %0, ptr noundef %1, i64 noundef %2, ptr noundef %3, ptr noundef %4, i64 noundef %5, i32 noundef %6, i32 noundef %7, i32 noundef %8, i1 noundef zeroext %9, i1 noundef zeroext %10, i1 noundef zeroext %11) unnamed_addr #2 align 2 {
  %13 = alloca ptr, align 8
  %14 = alloca ptr, align 8
  %15 = alloca i64, align 8
  %16 = alloca ptr, align 8
  %17 = alloca ptr, align 8
  %18 = alloca i64, align 8
  %19 = alloca i32, align 4
  %20 = alloca i32, align 4
  %21 = alloca i32, align 4
  %22 = alloca i8, align 1
  %23 = alloca i8, align 1
  %24 = alloca i8, align 1
  store ptr %0, ptr %13, align 8
  store ptr %1, ptr %14, align 8
  store i64 %2, ptr %15, align 8
  store ptr %3, ptr %16, align 8
  store ptr %4, ptr %17, align 8
  store i64 %5, ptr %18, align 8
  store i32 %6, ptr %19, align 4
  store i32 %7, ptr %20, align 4
  store i32 %8, ptr %21, align 4
  %25 = zext i1 %9 to i8
  store i8 %25, ptr %22, align 1
  %26 = zext i1 %10 to i8
  store i8 %26, ptr %23, align 1
  %27 = zext i1 %11 to i8
  store i8 %27, ptr %24, align 1
  %28 = load ptr, ptr %13, align 8
  call void @_ZN2cv16ParallelLoopBodyC2Ev(ptr noundef nonnull align 8 dereferenceable(8) %28) #10
  store ptr getelementptr inbounds inrange(-16, 24) ({ [5 x ptr] }, ptr @_ZTVN2cv3hal12cpu_baseline12_GLOBAL__N_120RGB8toYUV420pInvokerE, i32 0, i32 0, i32 2), ptr %28, align 8
  %29 = getelementptr inbounds %"struct.cv::hal::cpu_baseline::(anonymous namespace)::RGB8toYUV420pInvoker", ptr %28, i32 0, i32 1
  %30 = load ptr, ptr %14, align 8
  store ptr %30, ptr %29, align 8
  %31 = getelementptr inbounds %"struct.cv::hal::cpu_baseline::(anonymous namespace)::RGB8toYUV420pInvoker", ptr %28, i32 0, i32 2
  %32 = load i64, ptr %15, align 8
  store i64 %32, ptr %31, align 8
  %33 = getelementptr inbounds %"struct.cv::hal::cpu_baseline::(anonymous namespace)::RGB8toYUV420pInvoker", ptr %28, i32 0, i32 3
  %34 = load ptr, ptr %16, align 8
  store ptr %34, ptr %33, align 8
  %35 = getelementptr inbounds %"struct.cv::hal::cpu_baseline::(anonymous namespace)::RGB8toYUV420pInvoker", ptr %28, i32 0, i32 4
  %36 = load ptr, ptr %17, align 8
  store ptr %36, ptr %35, align 8
  %37 = getelementptr inbounds %"struct.cv::hal::cpu_baseline::(anonymous namespace)::RGB8toYUV420pInvoker", ptr %28, i32 0, i32 5
  %38 = load i64, ptr %18, align 8
  store i64 %38, ptr %37, align 8
  %39 = getelementptr inbounds %"struct.cv::hal::cpu_baseline::(anonymous namespace)::RGB8toYUV420pInvoker", ptr %28, i32 0, i32 6
  %40 = load i32, ptr %19, align 4
  store i32 %40, ptr %39, align 8
  %41 = getelementptr inbounds %"struct.cv::hal::cpu_baseline::(anonymous namespace)::RGB8toYUV420pInvoker", ptr %28, i32 0, i32 7
  %42 = load i32, ptr %20, align 4
  store i32 %42, ptr %41, align 4
  %43 = getelementptr inbounds %"struct.cv::hal::cpu_baseline::(anonymous namespace)::RGB8toYUV420pInvoker", ptr %28, i32 0, i32 8
  %44 = load i32, ptr %21, align 4
  store i32 %44, ptr %43, align 8
  %45 = getelementptr inbounds %"struct.cv::hal::cpu_baseline::(anonymous namespace)::RGB8toYUV420pInvoker", ptr %28, i32 0, i32 9
  %46 = load i8, ptr %22, align 1
  %47 = trunc i8 %46 to i1
  %48 = zext i1 %47 to i8
  store i8 %48, ptr %45, align 4
  %49 = getelementptr inbounds %"struct.cv::hal::cpu_baseline::(anonymous namespace)::RGB8toYUV420pInvoker", ptr %28, i32 0, i32 10
  %50 = load i8, ptr %23, align 1
  %51 = trunc i8 %50 to i1
  %52 = zext i1 %51 to i8
  store i8 %52, ptr %49, align 1
  %53 = getelementptr inbounds %"struct.cv::hal::cpu_baseline::(anonymous namespace)::RGB8toYUV420pInvoker", ptr %28, i32 0, i32 11
  %54 = load i8, ptr %24, align 1
  %55 = trunc i8 %54 to i1
  %56 = zext i1 %55 to i8
  store i8 %56, ptr %53, align 2
  ret void
}

; Function Attrs: mustprogress uwtable
define hidden void @_ZN2cv3hal12cpu_baseline21cvtBGRtoThreePlaneYUVEPKhmPhmiiibi(ptr noundef %0, i64 noundef %1, ptr noundef %2, i64 noundef %3, i32 noundef %4, i32 noundef %5, i32 noundef %6, i1 noundef zeroext %7, i32 noundef %8) #0 personality ptr @__gxx_personality_v0 {
  %10 = alloca ptr, align 8
  %11 = alloca i64, align 8
  %12 = alloca ptr, align 8
  %13 = alloca i64, align 8
  %14 = alloca i32, align 4
  %15 = alloca i32, align 4
  %16 = alloca i32, align 4
  %17 = alloca i8, align 1
  %18 = alloca i32, align 4
  %19 = alloca %"class.cv::utils::trace::details::Region", align 8
  %20 = alloca ptr, align 8
  %21 = alloca %"struct.cv::hal::cpu_baseline::(anonymous namespace)::RGB8toYUV420pInvoker", align 8
  %22 = alloca ptr, align 8
  %23 = alloca i32, align 4
  %24 = alloca %"class.cv::Range", align 4
  %25 = alloca %"class.cv::Range", align 4
  store ptr %0, ptr %10, align 8
  store i64 %1, ptr %11, align 8
  store ptr %2, ptr %12, align 8
  store i64 %3, ptr %13, align 8
  store i32 %4, ptr %14, align 4
  store i32 %5, ptr %15, align 4
  store i32 %6, ptr %16, align 4
  %26 = zext i1 %7 to i8
  store i8 %26, ptr %17, align 1
  store i32 %8, ptr %18, align 4
  call void @_ZN2cv5utils5trace7details6RegionC1ERKNS3_21LocationStaticStorageE(ptr noundef nonnull align 8 dereferenceable(12) %19, ptr noundef nonnull align 8 dereferenceable(32) @_ZZN2cv3hal12cpu_baseline21cvtBGRtoThreePlaneYUVEPKhmPhmiiibiE26__cv_trace_location_fn2097)
  %27 = load ptr, ptr %12, align 8
  %28 = load i64, ptr %13, align 8
  %29 = load i32, ptr %15, align 4
  %30 = sext i32 %29 to i64
  %31 = mul i64 %28, %30
  %32 = getelementptr inbounds i8, ptr %27, i64 %31
  store ptr %32, ptr %20, align 8
  %33 = load ptr, ptr %10, align 8
  %34 = load i64, ptr %11, align 8
  %35 = load ptr, ptr %12, align 8
  %36 = load ptr, ptr %20, align 8
  %37 = load i64, ptr %13, align 8
  %38 = load i32, ptr %14, align 4
  %39 = load i32, ptr %15, align 4
  %40 = load i32, ptr %16, align 4
  %41 = load i8, ptr %17, align 1
  %42 = trunc i8 %41 to i1
  %43 = load i32, ptr %18, align 4
  %44 = icmp eq i32 %43, 2
  invoke void @_ZN2cv3hal12cpu_baseline12_GLOBAL__N_120RGB8toYUV420pInvokerC2EPKhmPhS6_miiibbb(ptr noundef nonnull align 8 dereferenceable(63) %21, ptr noundef %33, i64 noundef %34, ptr noundef %35, ptr noundef %36, i64 noundef %37, i32 noundef %38, i32 noundef %39, i32 noundef %40, i1 noundef zeroext %42, i1 noundef zeroext %44, i1 noundef zeroext false)
          to label %45 unwind label %55

45:                                               ; preds = %9
  %46 = load i32, ptr %14, align 4
  %47 = load i32, ptr %15, align 4
  %48 = mul nsw i32 %46, %47
  %49 = icmp sge i32 %48, 76800
  br i1 %49, label %50, label %63

50:                                               ; preds = %45
  %51 = load i32, ptr %15, align 4
  %52 = sdiv i32 %51, 2
  invoke void @_ZN2cv5RangeC2Eii(ptr noundef nonnull align 4 dereferenceable(8) %24, i32 noundef 0, i32 noundef %52)
          to label %53 unwind label %59

53:                                               ; preds = %50
  invoke void @_ZN2cv13parallel_for_ERKNS_5RangeERKNS_16ParallelLoopBodyEd(ptr noundef nonnull align 4 dereferenceable(8) %24, ptr noundef nonnull align 8 dereferenceable(8) %21, double noundef -1.000000e+00)
          to label %54 unwind label %59

54:                                               ; preds = %53
  br label %68

55:                                               ; preds = %9
  %56 = landingpad { ptr, i32 }
          cleanup
  %57 = extractvalue { ptr, i32 } %56, 0
  store ptr %57, ptr %22, align 8
  %58 = extractvalue { ptr, i32 } %56, 1
  store i32 %58, ptr %23, align 4
  br label %69

59:                                               ; preds = %66, %63, %53, %50
  %60 = landingpad { ptr, i32 }
          cleanup
  %61 = extractvalue { ptr, i32 } %60, 0
  store ptr %61, ptr %22, align 8
  %62 = extractvalue { ptr, i32 } %60, 1
  store i32 %62, ptr %23, align 4
  call void @_ZN2cv3hal12cpu_baseline12_GLOBAL__N_120RGB8toYUV420pInvokerD2Ev(ptr noundef nonnull align 8 dereferenceable(63) %21) #10
  br label %69

63:                                               ; preds = %45
  %64 = load i32, ptr %15, align 4
  %65 = sdiv i32 %64, 2
  invoke void @_ZN2cv5RangeC2Eii(ptr noundef nonnull align 4 dereferenceable(8) %25, i32 noundef 0, i32 noundef %65)
          to label %66 unwind label %59

66:                                               ; preds = %63
  invoke void @_ZNK2cv3hal12cpu_baseline12_GLOBAL__N_120RGB8toYUV420pInvokerclERKNS_5RangeE(ptr noundef nonnull align 8 dereferenceable(63) %21, ptr noundef nonnull align 4 dereferenceable(8) %25)
          to label %67 unwind label %59

67:                                               ; preds = %66
  br label %68

68:                                               ; preds = %67, %54
  call void @_ZN2cv3hal12cpu_baseline12_GLOBAL__N_120RGB8toYUV420pInvokerD2Ev(ptr noundef nonnull align 8 dereferenceable(63) %21) #10
  call void @_ZN2cv5utils5trace7details6RegionD2Ev(ptr noundef nonnull align 8 dereferenceable(12) %19) #10
  ret void

69:                                               ; preds = %59, %55
  call void @_ZN2cv5utils5trace7details6RegionD2Ev(ptr noundef nonnull align 8 dereferenceable(12) %19) #10
  br label %70

70:                                               ; preds = %69
  %71 = load ptr, ptr %22, align 8
  %72 = load i32, ptr %23, align 4
  %73 = insertvalue { ptr, i32 } poison, ptr %71, 0
  %74 = insertvalue { ptr, i32 } %73, i32 %72, 1
  resume { ptr, i32 } %74
}