; Function Attrs: mustprogress uwtable
define hidden void @_ZN2cv3hal12cpu_baseline21cvtBGRtoThreePlaneYUVEPKhmPhmiiibi(ptr noundef %0, i64 noundef %1, ptr noundef %2, i64 noundef %3, i32 noundef %4, i32 noundef %5, i32 noundef %6, i1 noundef zeroext %7, i32 noundef %8) local_unnamed_addr #0 personality ptr @__gxx_personality_v0 {
  %10 = alloca %"class.cv::utils::trace::details::Region", align 8
  %11 = alloca %"struct.cv::hal::cpu_baseline::(anonymous namespace)::RGB8toYUV420pInvoker", align 8
  %12 = alloca %"class.cv::Range", align 4
  %13 = alloca %"class.cv::Range", align 4
  call void @_ZN2cv5utils5trace7details6RegionC1ERKNS3_21LocationStaticStorageE(ptr noundef nonnull align 8 dereferenceable(12) %10, ptr noundef nonnull align 8 dereferenceable(32) @_ZZN2cv3hal12cpu_baseline21cvtBGRtoThreePlaneYUVEPKhmPhmiiibiE26__cv_trace_location_fn2097)
  %14 = sext i32 %5 to i64
  %15 = mul i64 %14, %3
  %16 = getelementptr inbounds i8, ptr %2, i64 %15
  %17 = icmp eq i32 %8, 2
  %18 = zext i1 %7 to i8
  %19 = zext i1 %17 to i8
  store ptr getelementptr inbounds inrange(-16, 24) (i8, ptr @_ZTVN2cv3hal12cpu_baseline12_GLOBAL__N_120RGB8toYUV420pInvokerE, i64 16), ptr %11, align 8
  %20 = getelementptr inbounds i8, ptr %11, i64 8
  store ptr %0, ptr %20, align 8
  %21 = getelementptr inbounds i8, ptr %11, i64 16
  store i64 %1, ptr %21, align 8
  %22 = getelementptr inbounds i8, ptr %11, i64 24
  store ptr %2, ptr %22, align 8
  %23 = getelementptr inbounds i8, ptr %11, i64 32
  store ptr %16, ptr %23, align 8
  %24 = getelementptr inbounds i8, ptr %11, i64 40
  store i64 %3, ptr %24, align 8
  %25 = getelementptr inbounds i8, ptr %11, i64 48
  store i32 %4, ptr %25, align 8
  %26 = getelementptr inbounds i8, ptr %11, i64 52
  store i32 %5, ptr %26, align 4
  %27 = getelementptr inbounds i8, ptr %11, i64 56
  store i32 %6, ptr %27, align 8
  %28 = getelementptr inbounds i8, ptr %11, i64 60
  store i8 %18, ptr %28, align 4
  %29 = getelementptr inbounds i8, ptr %11, i64 61
  store i8 %19, ptr %29, align 1
  %30 = getelementptr inbounds i8, ptr %11, i64 62
  store i8 0, ptr %30, align 2
  %31 = mul nsw i32 %5, %4
  %32 = icmp sgt i32 %31, 76799
  %33 = sdiv i32 %5, 2
  br i1 %32, label %34, label %38

34:                                               ; preds = %9
  store i32 0, ptr %12, align 4
  %35 = getelementptr inbounds i8, ptr %12, i64 4
  store i32 %33, ptr %35, align 4
  invoke void @_ZN2cv13parallel_for_ERKNS_5RangeERKNS_16ParallelLoopBodyEd(ptr noundef nonnull align 4 dereferenceable(8) %12, ptr noundef nonnull align 8 dereferenceable(8) %11, double noundef -1.000000e+00)
          to label %40 unwind label %36

36:                                               ; preds = %34
  %37 = landingpad { ptr, i32 }
          cleanup
  call void @_ZN2cv16ParallelLoopBodyD2Ev(ptr noundef nonnull align 8 dereferenceable(8) %11) #12
  call void @_ZN2cv5utils5trace7details6RegionD2Ev(ptr noundef nonnull align 8 dereferenceable(12) %10) #12
  resume { ptr, i32 } %37

38:                                               ; preds = %9
  store i32 0, ptr %13, align 4
  %39 = getelementptr inbounds i8, ptr %13, i64 4
  store i32 %33, ptr %39, align 4
  call void @_ZNK2cv3hal12cpu_baseline12_GLOBAL__N_120RGB8toYUV420pInvokerclERKNS_5RangeE(ptr noundef nonnull align 8 dereferenceable(63) %11, ptr noundef nonnull align 4 dereferenceable(8) %13)
  br label %40

40:                                               ; preds = %38, %34
  call void @_ZN2cv16ParallelLoopBodyD2Ev(ptr noundef nonnull align 8 dereferenceable(8) %11) #12
  %41 = getelementptr inbounds i8, ptr %10, i64 8
  %42 = load i32, ptr %41, align 8
  %.not.i = icmp eq i32 %42, 0
  br i1 %.not.i, label %_ZN2cv5utils5trace7details6RegionD2Ev.exit, label %43

43:                                               ; preds = %40
  invoke void @_ZN2cv5utils5trace7details6Region7destroyEv(ptr noundef nonnull align 8 dereferenceable(12) %10)
          to label %_ZN2cv5utils5trace7details6RegionD2Ev.exit unwind label %44

44:                                               ; preds = %43
  %45 = landingpad { ptr, i32 }
          catch ptr null
  %46 = extractvalue { ptr, i32 } %45, 0
  call void @__clang_call_terminate(ptr %46) #13
  unreachable

_ZN2cv5utils5trace7details6RegionD2Ev.exit:       ; preds = %40, %43
  ret void
}